; Function Attrs: nofree norecurse nosync nounwind memory(argmem: read) uwtable
define range(i32 0, 2) i32 @Fra_SmlNodeIsZero(ptr noundef readonly captures(none) %0, ptr noundef readonly captures(none) %1) local_unnamed_addr #2 {
  %3 = getelementptr inbounds nuw i8, ptr %1, i64 36
  %4 = load i32, ptr %3, align 4, !tbaa !22
  %5 = getelementptr inbounds nuw i8, ptr %0, i64 40
  %6 = getelementptr inbounds nuw i8, ptr %0, i64 20
  %7 = load i32, ptr %6, align 4, !tbaa !25
  %8 = mul nsw i32 %7, %4
  %9 = sext i32 %8 to i64
  %10 = getelementptr inbounds i32, ptr %5, i64 %9
  %11 = getelementptr inbounds nuw i8, ptr %0, i64 24
  %12 = load i32, ptr %11, align 8, !tbaa !27
  %13 = icmp slt i32 %12, %7
  br i1 %13, label %.lr.ph.preheader, label %._crit_edge

.lr.ph.preheader:                                 ; preds = %2
  %14 = sext i32 %12 to i64
  br label %.lr.ph

15:                                               ; preds = %.lr.ph
  %indvars.iv.next = add nsw i64 %indvars.iv, 1
  %lftr.wideiv = trunc i64 %indvars.iv.next to i32
  %exitcond.not = icmp eq i32 %7, %lftr.wideiv
  br i1 %exitcond.not, label %._crit_edge, label %.lr.ph, !llvm.loop !34

.lr.ph:                                           ; preds = %.lr.ph.preheader, %15
  %indvars.iv = phi i64 [ %14, %.lr.ph.preheader ], [ %indvars.iv.next, %15 ]
  %16 = getelementptr inbounds i32, ptr %10, i64 %indvars.iv
  %17 = load i32, ptr %16, align 4, !tbaa !28
  %.not = icmp eq i32 %17, 0
  br i1 %.not, label %15, label %._crit_edge

._crit_edge:                                      ; preds = %.lr.ph, %15, %2
  %.08 = phi i32 [ 1, %2 ], [ 1, %15 ], [ 0, %.lr.ph ]
  ret i32 %.08
}